; Function Attrs: nounwind uwtable
define ptr @l_Lean_Meta_Grind_Arith_Cutsat_DvdSolution_le(ptr noundef readonly captures(none) %0, ptr noundef %1) local_unnamed_addr #1 {
  %3 = getelementptr inbounds nuw i8, ptr %0, i64 8
  %4 = getelementptr inbounds nuw i8, ptr %0, i64 16
  %5 = load ptr, ptr %4, align 8, !tbaa !11
  %6 = ptrtoint ptr %1 to i64
  %7 = and i64 %6, 1
  %.not.i20 = icmp eq i64 %7, 0
  br i1 %.not.i20, label %.critedge.i, label %8, !prof !4

8:                                                ; preds = %2
  %9 = ptrtoint ptr %5 to i64
  %10 = and i64 %9, 1
  %.not7.i = icmp eq i64 %10, 0
  br i1 %.not7.i, label %.critedge.i, label %11, !prof !4

11:                                               ; preds = %8
  %12 = shl i64 %6, 31
  %13 = ashr i64 %12, 32
  %14 = shl i64 %9, 31
  %15 = ashr i64 %14, 32
  %16 = sub nsw i64 %13, %15
  %17 = add nsw i64 %16, 2147483648
  %18 = icmp ult i64 %17, 4294967296
  br i1 %18, label %19, label %24, !prof !5

19:                                               ; preds = %11
  %20 = shl nsw i64 %16, 1
  %21 = and i64 %20, 8589934590
  %22 = or disjoint i64 %21, 1
  %23 = inttoptr i64 %22 to ptr
  br label %lean_int_sub.exit

24:                                               ; preds = %11
  %25 = tail call ptr @lean_big_int64_to_int(i64 noundef range(i64 -4611686016279904256, 4611686018427387905) %16) #6
  br label %lean_int_sub.exit

.critedge.i:                                      ; preds = %8, %2
  %26 = tail call ptr @lean_int_big_sub(ptr noundef %1, ptr noundef %5) #6
  br label %lean_int_sub.exit

lean_int_sub.exit:                                ; preds = %19, %24, %.critedge.i
  %.0.i = phi ptr [ %26, %.critedge.i ], [ %23, %19 ], [ %25, %24 ]
  %27 = load ptr, ptr %3, align 8, !tbaa !11
  %28 = ptrtoint ptr %.0.i to i64
  %29 = and i64 %28, 1
  %.not.i21 = icmp eq i64 %29, 0
  br i1 %.not.i21, label %56, label %30, !prof !4

30:                                               ; preds = %lean_int_sub.exit
  %31 = ptrtoint ptr %27 to i64
  %32 = and i64 %31, 1
  %.not18.i = icmp eq i64 %32, 0
  br i1 %.not18.i, label %lean_int_ediv.exit.thread33, label %34, !prof !4

lean_int_ediv.exit.thread33:                      ; preds = %30
  %33 = tail call ptr @lean_int_big_ediv(ptr noundef %.0.i, ptr noundef %27) #6
  br label %lean_dec.exit15

34:                                               ; preds = %30
  %35 = lshr i64 %31, 1
  %36 = trunc i64 %35 to i32
  %37 = icmp eq i32 %36, 0
  br i1 %37, label %lean_dec.exit15, label %38

38:                                               ; preds = %34
  %sext.i = shl i64 %35, 32
  %39 = ashr exact i64 %sext.i, 32
  %40 = shl i64 %28, 31
  %41 = ashr i64 %40, 32
  %42 = sdiv i64 %41, %39
  %43 = srem i64 %41, %39
  %44 = icmp slt i64 %43, 0
  %45 = icmp sgt i32 %36, 0
  %.v.i = select i1 %45, i64 -1, i64 1
  %46 = select i1 %44, i64 %.v.i, i64 0
  %.016.i = add nsw i64 %46, %42
  %47 = add nsw i64 %.016.i, 2147483648
  %48 = icmp ult i64 %47, 4294967296
  br i1 %48, label %49, label %54, !prof !5

49:                                               ; preds = %38
  %50 = shl nsw i64 %.016.i, 1
  %51 = and i64 %50, 8589934590
  %52 = or disjoint i64 %51, 1
  %53 = inttoptr i64 %52 to ptr
  br label %lean_dec.exit15

54:                                               ; preds = %38
  %55 = tail call ptr @lean_big_int64_to_int(i64 noundef range(i64 -4611686016279904256, 4611686018427387905) %.016.i) #6
  br label %lean_dec.exit15

56:                                               ; preds = %lean_int_sub.exit
  %57 = tail call ptr @lean_int_big_ediv(ptr noundef %.0.i, ptr noundef %27) #6
  %58 = load i32, ptr %.0.i, align 4, !tbaa !6
  %59 = icmp sgt i32 %58, 1
  br i1 %59, label %60, label %62, !prof !5

60:                                               ; preds = %56
  %61 = add nsw i32 %58, -1
  store i32 %61, ptr %.0.i, align 4, !tbaa !6
  br label %lean_dec.exit15

62:                                               ; preds = %56
  %.not.i = icmp eq i32 %58, 0
  br i1 %.not.i, label %lean_dec.exit15, label %63

63:                                               ; preds = %62
  tail call void @lean_dec_ref_cold(ptr noundef nonnull %.0.i) #6
  br label %lean_dec.exit15

lean_dec.exit15:                                  ; preds = %54, %49, %34, %63, %62, %60, %lean_int_ediv.exit.thread33
  %.1.i32 = phi ptr [ %33, %lean_int_ediv.exit.thread33 ], [ %57, %60 ], [ %57, %62 ], [ %57, %63 ], [ %55, %54 ], [ %53, %49 ], [ inttoptr (i64 1 to ptr), %34 ]
  %64 = ptrtoint ptr %.1.i32 to i64
  %65 = and i64 %64, 1
  %.not.i23 = icmp eq i64 %65, 0
  br i1 %.not.i23, label %85, label %66, !prof !4

66:                                               ; preds = %lean_dec.exit15
  %67 = ptrtoint ptr %27 to i64
  %68 = and i64 %67, 1
  %.not7.i24 = icmp eq i64 %68, 0
  br i1 %.not7.i24, label %lean_int_mul.exit.thread36, label %70, !prof !4

lean_int_mul.exit.thread36:                       ; preds = %66
  %69 = tail call ptr @lean_int_big_mul(ptr noundef %.1.i32, ptr noundef %27) #6
  br label %lean_dec.exit14

70:                                               ; preds = %66
  %71 = shl i64 %64, 31
  %72 = ashr i64 %71, 32
  %73 = shl i64 %67, 31
  %74 = ashr i64 %73, 32
  %75 = mul nsw i64 %72, %74
  %76 = add nsw i64 %75, 2147483648
  %77 = icmp ult i64 %76, 4294967296
  br i1 %77, label %78, label %83, !prof !5

78:                                               ; preds = %70
  %79 = shl nsw i64 %75, 1
  %80 = and i64 %79, 8589934590
  %81 = or disjoint i64 %80, 1
  %82 = inttoptr i64 %81 to ptr
  br label %lean_dec.exit14

83:                                               ; preds = %70
  %84 = tail call ptr @lean_big_int64_to_int(i64 noundef range(i64 -4611686016279904256, 4611686018427387905) %75) #6
  br label %lean_dec.exit14

85:                                               ; preds = %lean_dec.exit15
  %86 = tail call ptr @lean_int_big_mul(ptr noundef %.1.i32, ptr noundef %27) #6
  %87 = load i32, ptr %.1.i32, align 4, !tbaa !6
  %88 = icmp sgt i32 %87, 1
  br i1 %88, label %89, label %91, !prof !5

89:                                               ; preds = %85
  %90 = add nsw i32 %87, -1
  store i32 %90, ptr %.1.i32, align 4, !tbaa !6
  br label %lean_dec.exit14

91:                                               ; preds = %85
  %.not.i16 = icmp eq i32 %87, 0
  br i1 %.not.i16, label %lean_dec.exit14, label %92

92:                                               ; preds = %91
  tail call void @lean_dec_ref_cold(ptr noundef nonnull %.1.i32) #6
  br label %lean_dec.exit14

lean_dec.exit14:                                  ; preds = %83, %78, %92, %91, %89, %lean_int_mul.exit.thread36
  %.0.i2535 = phi ptr [ %69, %lean_int_mul.exit.thread36 ], [ %86, %89 ], [ %86, %91 ], [ %86, %92 ], [ %84, %83 ], [ %82, %78 ]
  %93 = ptrtoint ptr %.0.i2535 to i64
  %94 = and i64 %93, 1
  %.not.i27 = icmp eq i64 %94, 0
  br i1 %.not.i27, label %114, label %95, !prof !4

95:                                               ; preds = %lean_dec.exit14
  %96 = ptrtoint ptr %5 to i64
  %97 = and i64 %96, 1
  %.not7.i28 = icmp eq i64 %97, 0
  br i1 %.not7.i28, label %lean_int_add.exit.thread39, label %99, !prof !4

lean_int_add.exit.thread39:                       ; preds = %95
  %98 = tail call ptr @lean_int_big_add(ptr noundef %.0.i2535, ptr noundef %5) #6
  br label %lean_dec.exit

99:                                               ; preds = %95
  %100 = shl i64 %93, 31
  %101 = ashr i64 %100, 32
  %102 = shl i64 %96, 31
  %103 = ashr i64 %102, 32
  %104 = add nsw i64 %101, %103
  %105 = add nsw i64 %104, 2147483648
  %106 = icmp ult i64 %105, 4294967296
  br i1 %106, label %107, label %112, !prof !5

107:                                              ; preds = %99
  %108 = shl nsw i64 %104, 1
  %109 = and i64 %108, 8589934590
  %110 = or disjoint i64 %109, 1
  %111 = inttoptr i64 %110 to ptr
  br label %lean_dec.exit

112:                                              ; preds = %99
  %113 = tail call ptr @lean_big_int64_to_int(i64 noundef range(i64 -4611686016279904256, 4611686018427387905) %104) #6
  br label %lean_dec.exit

114:                                              ; preds = %lean_dec.exit14
  %115 = tail call ptr @lean_int_big_add(ptr noundef %.0.i2535, ptr noundef %5) #6
  %116 = load i32, ptr %.0.i2535, align 4, !tbaa !6
  %117 = icmp sgt i32 %116, 1
  br i1 %117, label %118, label %120, !prof !5

118:                                              ; preds = %114
  %119 = add nsw i32 %116, -1
  store i32 %119, ptr %.0.i2535, align 4, !tbaa !6
  br label %lean_dec.exit

120:                                              ; preds = %114
  %.not.i18 = icmp eq i32 %116, 0
  br i1 %.not.i18, label %lean_dec.exit, label %121

121:                                              ; preds = %120
  tail call void @lean_dec_ref_cold(ptr noundef nonnull %.0.i2535) #6
  br label %lean_dec.exit

lean_dec.exit:                                    ; preds = %112, %107, %121, %120, %118, %lean_int_add.exit.thread39
  %.0.i2938 = phi ptr [ %98, %lean_int_add.exit.thread39 ], [ %115, %118 ], [ %115, %120 ], [ %115, %121 ], [ %113, %112 ], [ %111, %107 ]
  ret ptr %.0.i2938
}